; Function Attrs: mustprogress uwtable
define noundef zeroext i1 @_ZNK12MeshDocument15hasBeenModifiedEv(ptr noundef nonnull readonly align 8 dereferenceable(192) %0) local_unnamed_addr #9 align 2 personality ptr @__gxx_personality_v0 {
  %2 = getelementptr inbounds i8, ptr %0, i64 80
  br label %3

3:                                                ; preds = %4, %1
  %.sroa.05.0.in = phi ptr [ %2, %1 ], [ %.sroa.05.0, %4 ]
  %.sroa.05.0 = load ptr, ptr %.sroa.05.0.in, align 8
  %.not = icmp ne ptr %.sroa.05.0, %2
  br i1 %.not, label %4, label %7

4:                                                ; preds = %3
  %5 = getelementptr inbounds i8, ptr %.sroa.05.0, i64 16
  %6 = tail call noundef zeroext i1 @_ZNK9MeshModel12meshModifiedEv(ptr noundef nonnull align 8 dereferenceable(1288) %5)
  br i1 %6, label %7, label %3

7:                                                ; preds = %3, %4
  ret i1 %.not
}